target datalayout = "e-m:e-p270:32:32-p271:32:32-p272:64:64-i64:64-i128:128-f80:128-n8:16:32:64-S128"
target triple = "x86_64-pc-linux-gnu"

%struct.PyMutex = type { i8 }
%struct._xid_lookup_state = type { %struct._PyXIData_registry_t }
%struct._PyXIData_registry_t = type { i32, i32, %struct.PyMutex, ptr }
%struct.llist_node = type { ptr, ptr }
%struct.PyWideStringList = type { i64, ptr }
%struct._pending_calls = type { ptr, %struct.PyMutex, i32, i32, i32, [300 x %struct._pending_call], i32, i32 }
%struct._pending_call = type { ptr, ptr, i32 }
%struct._stoptheworld_state = type { %struct.PyMutex, i8, i8, i8, %struct.PyEvent, i64, ptr }
%struct.PyEvent = type { i8 }
%struct._object = type { %union.anon.41, ptr }
%union.anon.41 = type { i64 }
%struct.PyGC_Head = type { i64, i64 }
%struct._is = type { %struct._ceval_state, ptr, i64, i64, i32, i64, i32, i32, i32, i64, %struct.pythreads, ptr, ptr, i64, %struct._gc_runtime_state, ptr, ptr, %struct._import_state, %struct._gil_runtime_state, %struct.codecs_state, %struct.PyConfig, i64, ptr, ptr, ptr, ptr, [8 x ptr], i8, i64, [255 x ptr], %struct._PyXI_state_t, ptr, ptr, ptr, %struct._warnings_runtime_state, %struct.atexit_state, %struct._stoptheworld_state, %struct._qsbr_shared, ptr, ptr, [8 x ptr], [8 x ptr], [8 x ptr], i8, i8, %struct._py_object_state, %struct._Py_unicode_state, %struct._Py_long_state, %struct._dtoa_state, %struct._py_func_state, %struct._py_code_state, %struct._Py_dict_state, %struct._Py_exc_state, %struct._Py_mem_interp_free_queue, %struct.ast_state, %struct.types_state, %struct.callable_cache, i8, ptr, i64, %struct._rare_events, ptr, %struct._Py_GlobalMonitors, i8, i8, i64, i64, [8 x [19 x ptr]], [8 x ptr], [8 x i64], %struct._Py_interp_cached_objects, %struct._Py_interp_static_objects, i64, %struct._PyThreadStateImpl }
%struct._ceval_state = type { i64, i32, ptr, i32, %struct._pending_calls }
%struct.pythreads = type { i64, ptr, ptr, ptr, i64, i64 }
%struct._gc_runtime_state = type { ptr, i32, i32, i32, %struct.gc_generation, [2 x %struct.gc_generation], %struct.gc_generation, [3 x %struct.gc_generation_stats], i32, ptr, ptr, i64, i64, i32, i32 }
%struct.gc_generation = type { %struct.PyGC_Head, i32, i32 }
%struct.gc_generation_stats = type { i64, i64, i64 }
%struct._import_state = type { ptr, ptr, ptr, i32, i32, i32, ptr, %struct._PyRecursiveMutex, %struct.anon.800 }
%struct._PyRecursiveMutex = type { %struct.PyMutex, i64, i64 }
%struct.anon.800 = type { i32, i64, i32 }
%struct._gil_runtime_state = type { i64, ptr, i32, i64, %union.pthread_cond_t, %union.pthread_mutex_t, %union.pthread_cond_t, %union.pthread_mutex_t }
%union.pthread_cond_t = type { %struct.__pthread_cond_s }
%struct.__pthread_cond_s = type { %union.__atomic_wide_counter, %union.__atomic_wide_counter, [2 x i32], [2 x i32], i32, i32, [2 x i32] }
%union.__atomic_wide_counter = type { i64 }
%union.pthread_mutex_t = type { %struct.__pthread_mutex_s }
%struct.__pthread_mutex_s = type { i32, i32, i32, i32, i32, i16, i16, %struct.__pthread_internal_list }
%struct.__pthread_internal_list = type { ptr, ptr }
%struct.codecs_state = type { ptr, ptr, ptr, i32 }
%struct.PyConfig = type { i32, i32, i32, i32, i32, i32, i64, i32, i32, i32, i32, i32, i32, i32, ptr, i32, ptr, ptr, ptr, i32, %struct.PyWideStringList, %struct.PyWideStringList, %struct.PyWideStringList, %struct.PyWideStringList, i32, i32, i32, i32, i32, i32, i32, i32, i32, i32, i32, i32, i32, ptr, ptr, ptr, i32, i32, i32, i32, i32, ptr, ptr, ptr, ptr, i32, %struct.PyWideStringList, ptr, ptr, ptr, ptr, ptr, ptr, ptr, i32, ptr, ptr, ptr, ptr, i32, i32, i32 }
%struct._PyXI_state_t = type { %struct._xid_lookup_state, %struct.xi_exceptions }
%struct.xi_exceptions = type { ptr, ptr, ptr }
%struct._warnings_runtime_state = type { ptr, ptr, ptr, %struct._PyRecursiveMutex, i64 }
%struct.atexit_state = type { ptr, ptr }
%struct._qsbr_shared = type { i64, i64, ptr, i64, %struct.PyMutex, ptr }
%struct._py_object_state = type { %struct._Py_freelists, i32 }
%struct._Py_freelists = type { %struct._Py_freelist, %struct._Py_freelist, [20 x %struct._Py_freelist], %struct._Py_freelist, %struct._Py_freelist, %struct._Py_freelist, %struct._Py_freelist, %struct._Py_freelist, %struct._Py_freelist, %struct._Py_freelist, %struct._Py_freelist, %struct._Py_freelist, %struct._Py_freelist, %struct._Py_freelist, %struct._Py_freelist, %struct._Py_freelist }
%struct._Py_freelist = type { ptr, i64 }
%struct._Py_unicode_state = type { %struct._Py_unicode_fs_codec, ptr, %struct._Py_unicode_ids }
%struct._Py_unicode_fs_codec = type { ptr, i32, ptr, i32 }
%struct._Py_unicode_ids = type { i64, ptr }
%struct._Py_long_state = type { i32 }
%struct._dtoa_state = type { [8 x ptr], [8 x ptr], [288 x double], ptr }
%struct._py_func_state = type { i32, [4096 x %struct._func_version_cache_item] }
%struct._func_version_cache_item = type { ptr, ptr }
%struct._py_code_state = type { %struct.PyMutex, ptr }
%struct._Py_dict_state = type { i32, [8 x ptr] }
%struct._Py_exc_state = type { ptr, ptr, i32, ptr }
%struct._Py_mem_interp_free_queue = type { i32, %struct.PyMutex, %struct.llist_node }
%struct.ast_state = type { %struct._PyOnceFlag, i32, ptr, ptr, ptr, ptr, ptr, ptr, ptr, ptr, ptr, ptr, ptr, ptr, ptr, ptr, ptr, ptr, ptr, ptr, ptr, ptr, ptr, ptr, ptr, ptr, ptr, ptr, ptr, ptr, ptr, ptr, ptr, ptr, ptr, ptr, ptr, ptr, ptr, ptr, ptr, ptr, ptr, ptr, ptr, ptr, ptr, ptr, ptr, ptr, ptr, ptr, ptr, ptr, ptr, ptr, ptr, ptr, ptr, ptr, ptr, ptr, ptr, ptr, ptr, ptr, ptr, ptr, ptr, ptr, ptr, ptr, ptr, ptr, ptr, ptr, ptr, ptr, ptr, ptr, ptr, ptr, ptr, ptr, ptr, ptr, ptr, ptr, ptr, ptr, ptr, ptr, ptr, ptr, ptr, ptr, ptr, ptr, ptr, ptr, ptr, ptr, ptr, ptr, ptr, ptr, ptr, ptr, ptr, ptr, ptr, ptr, ptr, ptr, ptr, ptr, ptr, ptr, ptr, ptr, ptr, ptr, ptr, ptr, ptr, ptr, ptr, ptr, ptr, ptr, ptr, ptr, ptr, ptr, ptr, ptr, ptr, ptr, ptr, ptr, ptr, ptr, ptr, ptr, ptr, ptr, ptr, ptr, ptr, ptr, ptr, ptr, ptr, ptr, ptr, ptr, ptr, ptr, ptr, ptr, ptr, ptr, ptr, ptr, ptr, ptr, ptr, ptr, ptr, ptr, ptr, ptr, ptr, ptr, ptr, ptr, ptr, ptr, ptr, ptr, ptr, ptr, ptr, ptr, ptr, ptr, ptr, ptr, ptr, ptr, ptr, ptr, ptr, ptr, ptr, ptr, ptr, ptr, ptr, ptr, ptr, ptr, ptr, ptr, ptr, ptr, ptr, ptr, ptr, ptr, ptr, ptr, ptr, ptr, ptr, ptr, ptr, ptr, ptr, ptr, ptr, ptr, ptr, ptr, ptr, ptr, ptr, ptr, ptr, ptr, ptr, ptr, ptr, ptr, ptr, ptr, ptr, ptr, ptr, ptr, ptr, ptr, ptr, ptr, ptr }
%struct._PyOnceFlag = type { i8 }
%struct.types_state = type { i32, %struct.type_cache, %struct.anon.802, %struct.anon.803, %struct.PyMutex, [4096 x ptr] }
%struct.type_cache = type { [4096 x %struct.type_cache_entry] }
%struct.type_cache_entry = type { i32, ptr, ptr }
%struct.anon.802 = type { i64, [200 x %struct.managed_static_type_state] }
%struct.managed_static_type_state = type { ptr, i32, i32, i32, ptr, ptr, ptr }
%struct.anon.803 = type { i64, i64, [10 x %struct.managed_static_type_state] }
%struct.callable_cache = type { ptr, ptr, ptr, ptr }
%struct._rare_events = type { i8, i8, i8, i8, i8 }
%struct._Py_GlobalMonitors = type { [16 x i8] }
%struct._Py_interp_cached_objects = type { ptr, ptr, ptr, [10 x ptr], ptr, ptr, ptr, ptr, ptr, ptr, ptr }
%struct._Py_interp_static_objects = type { %struct.anon.804 }
%struct.anon.804 = type { i32, %struct.PyGC_Head, %struct.PyHamtObject, %struct.PyBaseExceptionObject }
%struct.PyHamtObject = type { %struct._object, ptr, ptr, i64 }
%struct.PyBaseExceptionObject = type { %struct._object, ptr, ptr, ptr, ptr, ptr, ptr, i8 }
%struct._PyThreadStateImpl = type { %struct._ts, ptr, ptr, ptr, %struct.llist_node }
%struct._ts = type { ptr, ptr, ptr, i64, %struct.anon.805, i32, i32, i32, i32, i32, i32, i32, i32, ptr, ptr, ptr, ptr, ptr, ptr, ptr, ptr, i32, ptr, i64, i64, ptr, i64, i32, ptr, ptr, ptr, i64, i64, ptr, ptr, ptr, %struct._err_stackitem, ptr, i64, ptr, ptr }
%struct.anon.805 = type { i32 }
%struct._err_stackitem = type { ptr, ptr }

@_Py_tss_tstate = external thread_local global ptr, align 8

; Function Attrs: inlinehint nounwind uwtable
define internal ptr @_PyThreadState_GET() #3 {
  %1 = call align 8 ptr @llvm.threadlocal.address.p0(ptr align 8 @_Py_tss_tstate)
  %2 = load ptr, ptr %1, align 8, !tbaa !257
  ret ptr %2
}

; Function Attrs: inlinehint nounwind uwtable
define internal void @_PyGCHead_SET_PREV(ptr noundef %0, ptr noundef %1) #3 {
  %3 = alloca ptr, align 8
  %4 = alloca ptr, align 8
  %5 = alloca i64, align 8
  store ptr %0, ptr %3, align 8, !tbaa !11
  store ptr %1, ptr %4, align 8, !tbaa !11
  call void @llvm.lifetime.start.p0(i64 8, ptr %5) #9
  %6 = load ptr, ptr %4, align 8, !tbaa !11
  %7 = ptrtoint ptr %6 to i64
  store i64 %7, ptr %5, align 8, !tbaa !9
  %8 = load ptr, ptr %3, align 8, !tbaa !11
  %9 = getelementptr inbounds nuw %struct.PyGC_Head, ptr %8, i32 0, i32 1
  %10 = load i64, ptr %9, align 8, !tbaa !254
  %11 = and i64 %10, 3
  %12 = load i64, ptr %5, align 8, !tbaa !9
  %13 = or i64 %11, %12
  %14 = load ptr, ptr %3, align 8, !tbaa !11
  %15 = getelementptr inbounds nuw %struct.PyGC_Head, ptr %14, i32 0, i32 1
  store i64 %13, ptr %15, align 8, !tbaa !254
  call void @llvm.lifetime.end.p0(i64 8, ptr %5) #9
  ret void
}

; Function Attrs: inlinehint nounwind uwtable
define internal void @_PyGCHead_SET_NEXT(ptr noundef %0, ptr noundef %1) #3 {
  %3 = alloca ptr, align 8
  %4 = alloca ptr, align 8
  %5 = alloca i64, align 8
  store ptr %0, ptr %3, align 8, !tbaa !11
  store ptr %1, ptr %4, align 8, !tbaa !11
  call void @llvm.lifetime.start.p0(i64 8, ptr %5) #9
  %6 = load ptr, ptr %4, align 8, !tbaa !11
  %7 = ptrtoint ptr %6 to i64
  store i64 %7, ptr %5, align 8, !tbaa !9
  %8 = load ptr, ptr %3, align 8, !tbaa !11
  %9 = getelementptr inbounds nuw %struct.PyGC_Head, ptr %8, i32 0, i32 0
  %10 = load i64, ptr %9, align 8, !tbaa !256
  %11 = and i64 %10, 3
  %12 = load i64, ptr %5, align 8, !tbaa !9
  %13 = or i64 %11, %12
  %14 = load ptr, ptr %3, align 8, !tbaa !11
  %15 = getelementptr inbounds nuw %struct.PyGC_Head, ptr %14, i32 0, i32 0
  store i64 %13, ptr %15, align 8, !tbaa !256
  call void @llvm.lifetime.end.p0(i64 8, ptr %5) #9
  ret void
}

; Function Attrs: inlinehint nounwind uwtable
define internal ptr @_PyInterpreterState_GET() #3 {
  %1 = alloca ptr, align 8
  call void @llvm.lifetime.start.p0(i64 8, ptr %1) #9
  %2 = call ptr @_PyThreadState_GET()
  store ptr %2, ptr %1, align 8, !tbaa !257
  %3 = load ptr, ptr %1, align 8, !tbaa !257
  %4 = getelementptr inbounds nuw %struct._ts, ptr %3, i32 0, i32 2
  %5 = load ptr, ptr %4, align 8, !tbaa !258
  call void @llvm.lifetime.end.p0(i64 8, ptr %1) #9
  ret ptr %5
}

; Function Attrs: inlinehint nounwind uwtable
define internal ptr @_Py_AS_GC(ptr noundef %0) #3 {
  %2 = alloca ptr, align 8
  %3 = alloca ptr, align 8
  store ptr %0, ptr %2, align 8, !tbaa !12
  call void @llvm.lifetime.start.p0(i64 8, ptr %3) #9
  %4 = load ptr, ptr %2, align 8, !tbaa !12
  %5 = getelementptr i8, ptr %4, i64 -16
  store ptr %5, ptr %3, align 8, !tbaa !79
  %6 = load ptr, ptr %3, align 8, !tbaa !79
  call void @llvm.lifetime.end.p0(i64 8, ptr %3) #9
  ret ptr %6
}

; Function Attrs: inlinehint nounwind uwtable
define internal void @_PyObject_GC_TRACK(ptr noundef %0) #3 {
  %2 = alloca ptr, align 8
  %3 = alloca ptr, align 8
  %4 = alloca ptr, align 8
  %5 = alloca ptr, align 8
  %6 = alloca ptr, align 8
  %7 = alloca i64, align 8
  store ptr %0, ptr %2, align 8, !tbaa !12
  call void @llvm.lifetime.start.p0(i64 8, ptr %3) #9
  %8 = load ptr, ptr %2, align 8, !tbaa !12
  %9 = call ptr @_Py_AS_GC(ptr noundef %8)
  store ptr %9, ptr %3, align 8, !tbaa !11
  call void @llvm.lifetime.start.p0(i64 8, ptr %4) #9
  %10 = call ptr @_PyInterpreterState_GET()
  store ptr %10, ptr %4, align 8, !tbaa !27
  call void @llvm.lifetime.start.p0(i64 8, ptr %5) #9
  %11 = load ptr, ptr %4, align 8, !tbaa !27
  %12 = getelementptr inbounds nuw %struct._is, ptr %11, i32 0, i32 14
  %13 = getelementptr inbounds nuw %struct._gc_runtime_state, ptr %12, i32 0, i32 4
  %14 = getelementptr inbounds nuw %struct.gc_generation, ptr %13, i32 0, i32 0
  store ptr %14, ptr %5, align 8, !tbaa !11
  call void @llvm.lifetime.start.p0(i64 8, ptr %6) #9
  %15 = load ptr, ptr %5, align 8, !tbaa !11
  %16 = getelementptr inbounds nuw %struct.PyGC_Head, ptr %15, i32 0, i32 1
  %17 = load i64, ptr %16, align 8, !tbaa !254
  %18 = inttoptr i64 %17 to ptr
  store ptr %18, ptr %6, align 8, !tbaa !11
  %19 = load ptr, ptr %6, align 8, !tbaa !11
  %20 = load ptr, ptr %3, align 8, !tbaa !11
  call void @_PyGCHead_SET_NEXT(ptr noundef %19, ptr noundef %20)
  %21 = load ptr, ptr %3, align 8, !tbaa !11
  %22 = load ptr, ptr %6, align 8, !tbaa !11
  call void @_PyGCHead_SET_PREV(ptr noundef %21, ptr noundef %22)
  call void @llvm.lifetime.start.p0(i64 8, ptr %7) #9
  %23 = load ptr, ptr %4, align 8, !tbaa !27
  %24 = getelementptr inbounds nuw %struct._is, ptr %23, i32 0, i32 14
  %25 = getelementptr inbounds nuw %struct._gc_runtime_state, ptr %24, i32 0, i32 13
  %26 = load i32, ptr %25, align 8, !tbaa !255
  %27 = xor i32 1, %26
  %28 = sext i32 %27 to i64
  store i64 %28, ptr %7, align 8, !tbaa !9
  %29 = load ptr, ptr %5, align 8, !tbaa !11
  %30 = ptrtoint ptr %29 to i64
  %31 = load i64, ptr %7, align 8, !tbaa !9
  %32 = or i64 %30, %31
  %33 = load ptr, ptr %3, align 8, !tbaa !11
  %34 = getelementptr inbounds nuw %struct.PyGC_Head, ptr %33, i32 0, i32 0
  store i64 %32, ptr %34, align 8, !tbaa !256
  %35 = load ptr, ptr %3, align 8, !tbaa !11
  %36 = ptrtoint ptr %35 to i64
  %37 = load ptr, ptr %5, align 8, !tbaa !11
  %38 = getelementptr inbounds nuw %struct.PyGC_Head, ptr %37, i32 0, i32 1
  store i64 %36, ptr %38, align 8, !tbaa !254
  call void @llvm.lifetime.end.p0(i64 8, ptr %7) #9
  call void @llvm.lifetime.end.p0(i64 8, ptr %6) #9
  call void @llvm.lifetime.end.p0(i64 8, ptr %5) #9
  call void @llvm.lifetime.end.p0(i64 8, ptr %4) #9
  call void @llvm.lifetime.end.p0(i64 8, ptr %3) #9
  ret void
}